; Function Attrs: nounwind uwtable
define i32 @Kit_IsopNodeNum(ptr noundef %0, ptr noundef %1, i32 noundef %2, ptr noundef %3) local_unnamed_addr #0 {
  %5 = icmp eq ptr %3, null
  br i1 %5, label %6, label %11

6:                                                ; preds = %4
  %calloc = tail call dereferenceable_or_null(16) ptr @calloc(i64 1, i64 16)
  %7 = getelementptr inbounds nuw i8, ptr %calloc, i64 8
  %8 = tail call ptr @Kit_TruthToGraph2(ptr noundef %0, ptr noundef %1, i32 noundef %2, ptr noundef nonnull %calloc) #14
  %9 = load ptr, ptr %7, align 8
  %.not.i = icmp eq ptr %9, null
  br i1 %.not.i, label %Vec_IntFree.exit, label %10

10:                                               ; preds = %6
  tail call void @free(ptr noundef nonnull %9) #14
  br label %Vec_IntFree.exit

Vec_IntFree.exit:                                 ; preds = %6, %10
  tail call void @free(ptr noundef nonnull %calloc) #14
  br label %13

11:                                               ; preds = %4
  %12 = tail call ptr @Kit_TruthToGraph2(ptr noundef %0, ptr noundef %1, i32 noundef %2, ptr noundef nonnull %3) #14
  br label %13

13:                                               ; preds = %11, %Vec_IntFree.exit
  %.0 = phi ptr [ %8, %Vec_IntFree.exit ], [ %12, %11 ]
  %14 = icmp eq ptr %.0, null
  br i1 %14, label %.split18, label %.split

.split:                                           ; preds = %13
  %15 = getelementptr i8, ptr %.0, i64 4
  %.0.val = load i32, ptr %15, align 4
  %16 = getelementptr i8, ptr %.0, i64 8
  %.0.val22 = load i32, ptr %16, align 8
  %17 = sub nsw i32 %.0.val22, %.0.val
  br label %19

.split18:                                         ; preds = %13
  %puts = tail call i32 @puts(ptr nonnull dereferenceable(1) @str.3)
  tail call void @Kit_DsdPrintFromTruth(ptr noundef %0, i32 noundef %2) #14
  %putchar = tail call i32 @putchar(i32 10)
  tail call void @Kit_DsdPrintFromTruth(ptr noundef %1, i32 noundef %2) #14
  %putchar20 = tail call i32 @putchar(i32 10)
  %.val = load i32, ptr inttoptr (i64 4 to ptr), align 4
  %.val21 = load i32, ptr inttoptr (i64 8 to ptr), align 8
  %18 = sub nsw i32 %.val21, %.val
  br label %19

19:                                               ; preds = %.split, %.split18
  %phi.call = phi i32 [ %17, %.split ], [ %18, %.split18 ]
  tail call void @Kit_GraphFree(ptr noundef %.0) #14
  ret i32 %phi.call
}